; Function Attrs: mustprogress uwtable
define noundef ptr @_ZN6icu_779VTimeZone19createVTimeZoneByIDERKNS_13UnicodeStringE(ptr noundef nonnull align 8 dereferenceable(64) %0) local_unnamed_addr #2 align 2 personality ptr @__gxx_personality_v0 {
  %2 = alloca i32, align 4
  %3 = alloca i32, align 4
  %4 = tail call noundef ptr @_ZN6icu_777UMemorynwEm(i64 noundef 288) #16
  %5 = icmp eq ptr %4, null
  br i1 %5, label %.thread, label %6

6:                                                ; preds = %1
  invoke void @_ZN6icu_779VTimeZoneC1Ev(ptr noundef nonnull align 8 dereferenceable(288) %4)
          to label %9 unwind label %7

7:                                                ; preds = %6
  %8 = landingpad { ptr, i32 }
          cleanup
  tail call void @_ZN6icu_777UMemorydlEPv(ptr noundef nonnull %4) #16
  resume { ptr, i32 } %8

9:                                                ; preds = %6
  %10 = tail call noundef ptr @_ZN6icu_778TimeZone14createTimeZoneERKNS_13UnicodeStringE(ptr noundef nonnull align 8 dereferenceable(64) %0)
  %11 = getelementptr inbounds nuw i8, ptr %4, i64 72
  store ptr %10, ptr %11, align 8, !tbaa !29
  %12 = getelementptr inbounds nuw i8, ptr %4, i64 160
  %13 = getelementptr inbounds nuw i8, ptr %10, i64 8
  %14 = tail call noundef nonnull align 8 dereferenceable(64) ptr @_ZN6icu_7713UnicodeStringaSERKS0_(ptr noundef nonnull align 8 dereferenceable(64) %12, ptr noundef nonnull align 8 dereferenceable(64) %13)
  call void @llvm.lifetime.start.p0(i64 4, ptr nonnull %2) #16
  store i32 0, ptr %2, align 4, !tbaa !31
  call void @llvm.lifetime.start.p0(i64 4, ptr nonnull %3) #16
  store i32 0, ptr %3, align 4, !tbaa !42
  %15 = call ptr @ures_openDirect_77(ptr noundef null, ptr noundef nonnull @.str, ptr noundef nonnull %2)
  %16 = call ptr @ures_getStringByKey_77(ptr noundef %15, ptr noundef nonnull @.str.1, ptr noundef nonnull %3, ptr noundef nonnull %2)
  %17 = load i32, ptr %2, align 4, !tbaa !31
  %18 = icmp sgt i32 %17, 0
  br i1 %18, label %31, label %19

19:                                               ; preds = %9
  %20 = getelementptr inbounds nuw i8, ptr %4, i64 224
  %21 = load i32, ptr %3, align 4, !tbaa !42
  call void @_ZN6icu_7713UnicodeString7unBogusEv(ptr noundef nonnull align 8 dereferenceable(64) %20)
  %22 = getelementptr inbounds nuw i8, ptr %4, i64 232
  %23 = load i16, ptr %22, align 8, !tbaa !9
  %24 = icmp slt i16 %23, 0
  %25 = ashr i16 %23, 5
  %26 = sext i16 %25 to i32
  %27 = getelementptr inbounds nuw i8, ptr %4, i64 236
  %28 = load i32, ptr %27, align 4
  %29 = select i1 %24, i32 %28, i32 %26
  %30 = call noundef nonnull align 8 dereferenceable(64) ptr @_ZN6icu_7713UnicodeString9doReplaceEiiPKDsii(ptr noundef nonnull align 8 dereferenceable(64) %20, i32 noundef 0, i32 noundef %29, ptr noundef %16, i32 noundef 0, i32 noundef %21)
  br label %31

31:                                               ; preds = %19, %9
  call void @ures_close_77(ptr noundef %15)
  call void @llvm.lifetime.end.p0(i64 4, ptr nonnull %3) #16
  call void @llvm.lifetime.end.p0(i64 4, ptr nonnull %2) #16
  br label %.thread

.thread:                                          ; preds = %1, %31
  ret ptr %4
}